target datalayout = "e-m:e-p270:32:32-p271:32:32-p272:64:64-i64:64-i128:128-f80:128-n8:16:32:64-S128"
target triple = "x86_64-pc-linux-gnu"

%struct.dlist_node = type { ptr, ptr }
%struct.CachedPlanSource = type { i32, ptr, ptr, i32, ptr, i32, ptr, ptr, i32, i8, ptr, ptr, ptr, ptr, ptr, ptr, ptr, i32, i8, i8, ptr, i8, i8, i8, i8, i32, %struct.dlist_node, double, double, i64, i64 }

@CurrentMemoryContext = external global ptr, align 8
@.str = private unnamed_addr constant [17 x i8] c"CachedPlanSource\00", align 1

; Function Attrs: inlinehint nounwind uwtable
define internal ptr @MemoryContextSwitchTo(ptr noundef %0) #3 {
  %2 = alloca ptr, align 8
  %3 = alloca ptr, align 8
  store ptr %0, ptr %2, align 8
  call void @llvm.lifetime.start.p0(i64 8, ptr %3) #8
  %4 = load ptr, ptr @CurrentMemoryContext, align 8
  store ptr %4, ptr %3, align 8
  %5 = load ptr, ptr %2, align 8
  store ptr %5, ptr @CurrentMemoryContext, align 8
  %6 = load ptr, ptr %3, align 8
  call void @llvm.lifetime.end.p0(i64 8, ptr %3) #8
  ret ptr %6
}

; Function Attrs: nounwind uwtable
define dso_local ptr @CreateCachedPlan(ptr noundef %0, ptr noundef %1, i32 noundef %2) #0 {
  %4 = alloca ptr, align 8
  %5 = alloca ptr, align 8
  %6 = alloca i32, align 4
  %7 = alloca ptr, align 8
  %8 = alloca ptr, align 8
  %9 = alloca ptr, align 8
  %10 = alloca i32, align 4
  store ptr %0, ptr %4, align 8
  store ptr %1, ptr %5, align 8
  store i32 %2, ptr %6, align 4
  call void @llvm.lifetime.start.p0(i64 8, ptr %7) #8
  call void @llvm.lifetime.start.p0(i64 8, ptr %8) #8
  call void @llvm.lifetime.start.p0(i64 8, ptr %9) #8
  br label %11

11:                                               ; preds = %3
  br label %12

12:                                               ; preds = %11
  br label %13

13:                                               ; preds = %12
  store i32 1, ptr %10, align 4
  %14 = load ptr, ptr @CurrentMemoryContext, align 8
  %15 = call ptr @AllocSetContextCreateInternal(ptr noundef %14, ptr noundef @.str, i64 noundef 0, i64 noundef 1024, i64 noundef 8388608)
  store ptr %15, ptr %8, align 8
  %16 = load ptr, ptr %8, align 8
  %17 = call ptr @MemoryContextSwitchTo(ptr noundef %16)
  store ptr %17, ptr %9, align 8
  %18 = call ptr @palloc0(i64 noundef 200)
  store ptr %18, ptr %7, align 8
  %19 = load ptr, ptr %7, align 8
  %20 = getelementptr inbounds nuw %struct.CachedPlanSource, ptr %19, i32 0, i32 0
  store i32 195726186, ptr %20, align 8
  %21 = load ptr, ptr %4, align 8
  %22 = call ptr @copyObjectImpl(ptr noundef %21)
  %23 = load ptr, ptr %7, align 8
  %24 = getelementptr inbounds nuw %struct.CachedPlanSource, ptr %23, i32 0, i32 1
  store ptr %22, ptr %24, align 8
  %25 = load ptr, ptr %5, align 8
  %26 = call ptr @pstrdup(ptr noundef %25)
  %27 = load ptr, ptr %7, align 8
  %28 = getelementptr inbounds nuw %struct.CachedPlanSource, ptr %27, i32 0, i32 2
  store ptr %26, ptr %28, align 8
  %29 = load ptr, ptr %8, align 8
  %30 = load ptr, ptr %7, align 8
  %31 = getelementptr inbounds nuw %struct.CachedPlanSource, ptr %30, i32 0, i32 2
  %32 = load ptr, ptr %31, align 8
  call void @MemoryContextSetIdentifier(ptr noundef %29, ptr noundef %32)
  %33 = load i32, ptr %6, align 4
  %34 = load ptr, ptr %7, align 8
  %35 = getelementptr inbounds nuw %struct.CachedPlanSource, ptr %34, i32 0, i32 3
  store i32 %33, ptr %35, align 8
  %36 = load ptr, ptr %7, align 8
  %37 = getelementptr inbounds nuw %struct.CachedPlanSource, ptr %36, i32 0, i32 4
  store ptr null, ptr %37, align 8
  %38 = load ptr, ptr %7, align 8
  %39 = getelementptr inbounds nuw %struct.CachedPlanSource, ptr %38, i32 0, i32 5
  store i32 0, ptr %39, align 8
  %40 = load ptr, ptr %7, align 8
  %41 = getelementptr inbounds nuw %struct.CachedPlanSource, ptr %40, i32 0, i32 6
  store ptr null, ptr %41, align 8
  %42 = load ptr, ptr %7, align 8
  %43 = getelementptr inbounds nuw %struct.CachedPlanSource, ptr %42, i32 0, i32 7
  store ptr null, ptr %43, align 8
  %44 = load ptr, ptr %7, align 8
  %45 = getelementptr inbounds nuw %struct.CachedPlanSource, ptr %44, i32 0, i32 8
  store i32 0, ptr %45, align 8
  %46 = load ptr, ptr %7, align 8
  %47 = getelementptr inbounds nuw %struct.CachedPlanSource, ptr %46, i32 0, i32 9
  store i8 0, ptr %47, align 4
  %48 = load ptr, ptr %7, align 8
  %49 = getelementptr inbounds nuw %struct.CachedPlanSource, ptr %48, i32 0, i32 10
  store ptr null, ptr %49, align 8
  %50 = load ptr, ptr %8, align 8
  %51 = load ptr, ptr %7, align 8
  %52 = getelementptr inbounds nuw %struct.CachedPlanSource, ptr %51, i32 0, i32 11
  store ptr %50, ptr %52, align 8
  %53 = load ptr, ptr %7, align 8
  %54 = getelementptr inbounds nuw %struct.CachedPlanSource, ptr %53, i32 0, i32 12
  store ptr null, ptr %54, align 8
  %55 = load ptr, ptr %7, align 8
  %56 = getelementptr inbounds nuw %struct.CachedPlanSource, ptr %55, i32 0, i32 13
  store ptr null, ptr %56, align 8
  %57 = load ptr, ptr %7, align 8
  %58 = getelementptr inbounds nuw %struct.CachedPlanSource, ptr %57, i32 0, i32 14
  store ptr null, ptr %58, align 8
  %59 = load ptr, ptr %7, align 8
  %60 = getelementptr inbounds nuw %struct.CachedPlanSource, ptr %59, i32 0, i32 15
  store ptr null, ptr %60, align 8
  %61 = load ptr, ptr %7, align 8
  %62 = getelementptr inbounds nuw %struct.CachedPlanSource, ptr %61, i32 0, i32 16
  store ptr null, ptr %62, align 8
  %63 = load ptr, ptr %7, align 8
  %64 = getelementptr inbounds nuw %struct.CachedPlanSource, ptr %63, i32 0, i32 17
  store i32 0, ptr %64, align 8
  %65 = load ptr, ptr %7, align 8
  %66 = getelementptr inbounds nuw %struct.CachedPlanSource, ptr %65, i32 0, i32 18
  store i8 0, ptr %66, align 4
  %67 = load ptr, ptr %7, align 8
  %68 = getelementptr inbounds nuw %struct.CachedPlanSource, ptr %67, i32 0, i32 19
  store i8 0, ptr %68, align 1
  %69 = load ptr, ptr %7, align 8
  %70 = getelementptr inbounds nuw %struct.CachedPlanSource, ptr %69, i32 0, i32 20
  store ptr null, ptr %70, align 8
  %71 = load ptr, ptr %7, align 8
  %72 = getelementptr inbounds nuw %struct.CachedPlanSource, ptr %71, i32 0, i32 21
  store i8 0, ptr %72, align 8
  %73 = load ptr, ptr %7, align 8
  %74 = getelementptr inbounds nuw %struct.CachedPlanSource, ptr %73, i32 0, i32 22
  store i8 0, ptr %74, align 1
  %75 = load ptr, ptr %7, align 8
  %76 = getelementptr inbounds nuw %struct.CachedPlanSource, ptr %75, i32 0, i32 23
  store i8 0, ptr %76, align 2
  %77 = load ptr, ptr %7, align 8
  %78 = getelementptr inbounds nuw %struct.CachedPlanSource, ptr %77, i32 0, i32 24
  store i8 0, ptr %78, align 1
  %79 = load ptr, ptr %7, align 8
  %80 = getelementptr inbounds nuw %struct.CachedPlanSource, ptr %79, i32 0, i32 25
  store i32 0, ptr %80, align 4
  %81 = load ptr, ptr %7, align 8
  %82 = getelementptr inbounds nuw %struct.CachedPlanSource, ptr %81, i32 0, i32 27
  store double -1.000000e+00, ptr %82, align 8
  %83 = load ptr, ptr %7, align 8
  %84 = getelementptr inbounds nuw %struct.CachedPlanSource, ptr %83, i32 0, i32 28
  store double 0.000000e+00, ptr %84, align 8
  %85 = load ptr, ptr %7, align 8
  %86 = getelementptr inbounds nuw %struct.CachedPlanSource, ptr %85, i32 0, i32 30
  store i64 0, ptr %86, align 8
  %87 = load ptr, ptr %7, align 8
  %88 = getelementptr inbounds nuw %struct.CachedPlanSource, ptr %87, i32 0, i32 29
  store i64 0, ptr %88, align 8
  %89 = load ptr, ptr %9, align 8
  %90 = call ptr @MemoryContextSwitchTo(ptr noundef %89)
  %91 = load ptr, ptr %7, align 8
  call void @llvm.lifetime.end.p0(i64 8, ptr %9) #8
  call void @llvm.lifetime.end.p0(i64 8, ptr %8) #8
  call void @llvm.lifetime.end.p0(i64 8, ptr %7) #8
  ret ptr %91
}