; Function Attrs: nounwind uwtable
define dso_local noundef ptr @CreateCachedPlan(ptr noundef %0, ptr noundef %1, i32 noundef %2) local_unnamed_addr #0 {
  %4 = load ptr, ptr @CurrentMemoryContext, align 8
  %5 = tail call ptr @AllocSetContextCreateInternal(ptr noundef %4, ptr noundef nonnull @.str, i64 noundef 0, i64 noundef 1024, i64 noundef 8388608) #9
  %6 = load ptr, ptr @CurrentMemoryContext, align 8
  store ptr %5, ptr @CurrentMemoryContext, align 8
  %7 = tail call ptr @palloc0(i64 noundef 200) #9
  store i32 195726186, ptr %7, align 8
  %8 = tail call ptr @copyObjectImpl(ptr noundef %0) #9
  %9 = getelementptr inbounds nuw i8, ptr %7, i64 8
  store ptr %8, ptr %9, align 8
  %10 = tail call ptr @pstrdup(ptr noundef %1) #9
  %11 = getelementptr inbounds nuw i8, ptr %7, i64 16
  store ptr %10, ptr %11, align 8
  tail call void @MemoryContextSetIdentifier(ptr noundef %5, ptr noundef %10) #9
  %12 = getelementptr inbounds nuw i8, ptr %7, i64 24
  store i32 %2, ptr %12, align 8
  %13 = getelementptr inbounds nuw i8, ptr %7, i64 32
  store ptr null, ptr %13, align 8
  %14 = getelementptr inbounds nuw i8, ptr %7, i64 40
  store i32 0, ptr %14, align 8
  %15 = getelementptr inbounds nuw i8, ptr %7, i64 48
  %16 = getelementptr inbounds nuw i8, ptr %7, i64 72
  store ptr null, ptr %16, align 8
  %17 = getelementptr inbounds nuw i8, ptr %7, i64 80
  tail call void @llvm.memset.p0.i64(ptr noundef nonnull align 8 dereferenceable(21) %15, i8 0, i64 21, i1 false)
  store ptr %5, ptr %17, align 8
  %18 = getelementptr inbounds nuw i8, ptr %7, i64 88
  %19 = getelementptr inbounds nuw i8, ptr %7, i64 136
  %20 = getelementptr inbounds nuw i8, ptr %7, i64 168
  tail call void @llvm.memset.p0.i64(ptr noundef nonnull align 8 dereferenceable(46) %18, i8 0, i64 46, i1 false)
  tail call void @llvm.memset.p0.i64(ptr noundef nonnull align 8 dereferenceable(16) %19, i8 0, i64 16, i1 false)
  store double -1.000000e+00, ptr %20, align 8
  %21 = getelementptr inbounds nuw i8, ptr %7, i64 176
  tail call void @llvm.memset.p0.i64(ptr noundef nonnull align 8 dereferenceable(24) %21, i8 0, i64 24, i1 false)
  store ptr %6, ptr @CurrentMemoryContext, align 8
  ret ptr %7
}